target datalayout = "e-m:e-p270:32:32-p271:32:32-p272:64:64-i64:64-i128:128-f80:128-n8:16:32:64-S128"
target triple = "x86_64-pc-linux-gnu"

%struct.BIO_CORE_GLOBALS = type { ptr, ptr, ptr, ptr, ptr, ptr, ptr }
%struct.ossl_dispatch_st = type { i32, ptr }

; Function Attrs: inlinehint nounwind uwtable
define internal ptr @OSSL_FUNC_BIO_free(ptr noundef %0) #3 {
  %2 = alloca ptr, align 8
  store ptr %0, ptr %2, align 8, !tbaa !17
  %3 = load ptr, ptr %2, align 8, !tbaa !17
  %4 = getelementptr inbounds nuw %struct.ossl_dispatch_st, ptr %3, i32 0, i32 1
  %5 = load ptr, ptr %4, align 8, !tbaa !28
  ret ptr %5
}

; Function Attrs: inlinehint nounwind uwtable
define internal ptr @OSSL_FUNC_BIO_up_ref(ptr noundef %0) #3 {
  %2 = alloca ptr, align 8
  store ptr %0, ptr %2, align 8, !tbaa !17
  %3 = load ptr, ptr %2, align 8, !tbaa !17
  %4 = getelementptr inbounds nuw %struct.ossl_dispatch_st, ptr %3, i32 0, i32 1
  %5 = load ptr, ptr %4, align 8, !tbaa !28
  ret ptr %5
}

; Function Attrs: inlinehint nounwind uwtable
define internal ptr @OSSL_FUNC_BIO_ctrl(ptr noundef %0) #3 {
  %2 = alloca ptr, align 8
  store ptr %0, ptr %2, align 8, !tbaa !17
  %3 = load ptr, ptr %2, align 8, !tbaa !17
  %4 = getelementptr inbounds nuw %struct.ossl_dispatch_st, ptr %3, i32 0, i32 1
  %5 = load ptr, ptr %4, align 8, !tbaa !28
  ret ptr %5
}

; Function Attrs: inlinehint nounwind uwtable
define internal ptr @OSSL_FUNC_BIO_puts(ptr noundef %0) #3 {
  %2 = alloca ptr, align 8
  store ptr %0, ptr %2, align 8, !tbaa !17
  %3 = load ptr, ptr %2, align 8, !tbaa !17
  %4 = getelementptr inbounds nuw %struct.ossl_dispatch_st, ptr %3, i32 0, i32 1
  %5 = load ptr, ptr %4, align 8, !tbaa !28
  ret ptr %5
}

; Function Attrs: inlinehint nounwind uwtable
define internal ptr @OSSL_FUNC_BIO_gets(ptr noundef %0) #3 {
  %2 = alloca ptr, align 8
  store ptr %0, ptr %2, align 8, !tbaa !17
  %3 = load ptr, ptr %2, align 8, !tbaa !17
  %4 = getelementptr inbounds nuw %struct.ossl_dispatch_st, ptr %3, i32 0, i32 1
  %5 = load ptr, ptr %4, align 8, !tbaa !28
  ret ptr %5
}

; Function Attrs: inlinehint nounwind uwtable
define internal ptr @OSSL_FUNC_BIO_write_ex(ptr noundef %0) #3 {
  %2 = alloca ptr, align 8
  store ptr %0, ptr %2, align 8, !tbaa !17
  %3 = load ptr, ptr %2, align 8, !tbaa !17
  %4 = getelementptr inbounds nuw %struct.ossl_dispatch_st, ptr %3, i32 0, i32 1
  %5 = load ptr, ptr %4, align 8, !tbaa !28
  ret ptr %5
}

; Function Attrs: inlinehint nounwind uwtable
define internal ptr @OSSL_FUNC_BIO_read_ex(ptr noundef %0) #3 {
  %2 = alloca ptr, align 8
  store ptr %0, ptr %2, align 8, !tbaa !17
  %3 = load ptr, ptr %2, align 8, !tbaa !17
  %4 = getelementptr inbounds nuw %struct.ossl_dispatch_st, ptr %3, i32 0, i32 1
  %5 = load ptr, ptr %4, align 8, !tbaa !28
  ret ptr %5
}

; Function Attrs: inlinehint nounwind uwtable
define internal ptr @get_globals(ptr noundef %0) #3 {
  %2 = alloca ptr, align 8
  store ptr %0, ptr %2, align 8, !tbaa !7
  %3 = load ptr, ptr %2, align 8, !tbaa !7
  %4 = call ptr @ossl_lib_ctx_get_data(ptr noundef %3, i32 noundef 17)
  ret ptr %4
}

; Function Attrs: nounwind uwtable
define i32 @ossl_bio_init_core(ptr noundef %0, ptr noundef %1) #0 {
  %3 = alloca i32, align 4
  %4 = alloca ptr, align 8
  %5 = alloca ptr, align 8
  %6 = alloca ptr, align 8
  %7 = alloca i32, align 4
  store ptr %0, ptr %4, align 8, !tbaa !7
  store ptr %1, ptr %5, align 8, !tbaa !17
  call void @llvm.lifetime.start.p0(i64 8, ptr %6) #4
  %8 = load ptr, ptr %4, align 8, !tbaa !7
  %9 = call ptr @get_globals(ptr noundef %8)
  store ptr %9, ptr %6, align 8, !tbaa !3
  %10 = load ptr, ptr %6, align 8, !tbaa !3
  %11 = icmp eq ptr %10, null
  br i1 %11, label %12, label %13

12:                                               ; preds = %2
  store i32 0, ptr %3, align 4
  store i32 1, ptr %7, align 4
  br label %105

13:                                               ; preds = %2
  br label %14

14:                                               ; preds = %101, %13
  %15 = load ptr, ptr %5, align 8, !tbaa !17
  %16 = getelementptr inbounds nuw %struct.ossl_dispatch_st, ptr %15, i32 0, i32 0
  %17 = load i32, ptr %16, align 8, !tbaa !19
  %18 = icmp ne i32 %17, 0
  br i1 %18, label %19, label %104

19:                                               ; preds = %14
  %20 = load ptr, ptr %5, align 8, !tbaa !17
  %21 = getelementptr inbounds nuw %struct.ossl_dispatch_st, ptr %20, i32 0, i32 0
  %22 = load i32, ptr %21, align 8, !tbaa !19
  switch i32 %22, label %100 [
    i32 42, label %23
    i32 43, label %34
    i32 49, label %45
    i32 48, label %56
    i32 50, label %67
    i32 44, label %78
    i32 45, label %89
  ]

23:                                               ; preds = %19
  %24 = load ptr, ptr %6, align 8, !tbaa !3
  %25 = getelementptr inbounds nuw %struct.BIO_CORE_GLOBALS, ptr %24, i32 0, i32 0
  %26 = load ptr, ptr %25, align 8, !tbaa !13
  %27 = icmp eq ptr %26, null
  br i1 %27, label %28, label %33

28:                                               ; preds = %23
  %29 = load ptr, ptr %5, align 8, !tbaa !17
  %30 = call ptr @OSSL_FUNC_BIO_read_ex(ptr noundef %29)
  %31 = load ptr, ptr %6, align 8, !tbaa !3
  %32 = getelementptr inbounds nuw %struct.BIO_CORE_GLOBALS, ptr %31, i32 0, i32 0
  store ptr %30, ptr %32, align 8, !tbaa !13
  br label %33

33:                                               ; preds = %28, %23
  br label %100

34:                                               ; preds = %19
  %35 = load ptr, ptr %6, align 8, !tbaa !3
  %36 = getelementptr inbounds nuw %struct.BIO_CORE_GLOBALS, ptr %35, i32 0, i32 1
  %37 = load ptr, ptr %36, align 8, !tbaa !11
  %38 = icmp eq ptr %37, null
  br i1 %38, label %39, label %44

39:                                               ; preds = %34
  %40 = load ptr, ptr %5, align 8, !tbaa !17
  %41 = call ptr @OSSL_FUNC_BIO_write_ex(ptr noundef %40)
  %42 = load ptr, ptr %6, align 8, !tbaa !3
  %43 = getelementptr inbounds nuw %struct.BIO_CORE_GLOBALS, ptr %42, i32 0, i32 1
  store ptr %41, ptr %43, align 8, !tbaa !11
  br label %44

44:                                               ; preds = %39, %34
  br label %100

45:                                               ; preds = %19
  %46 = load ptr, ptr %6, align 8, !tbaa !3
  %47 = getelementptr inbounds nuw %struct.BIO_CORE_GLOBALS, ptr %46, i32 0, i32 2
  %48 = load ptr, ptr %47, align 8, !tbaa !22
  %49 = icmp eq ptr %48, null
  br i1 %49, label %50, label %55

50:                                               ; preds = %45
  %51 = load ptr, ptr %5, align 8, !tbaa !17
  %52 = call ptr @OSSL_FUNC_BIO_gets(ptr noundef %51)
  %53 = load ptr, ptr %6, align 8, !tbaa !3
  %54 = getelementptr inbounds nuw %struct.BIO_CORE_GLOBALS, ptr %53, i32 0, i32 2
  store ptr %52, ptr %54, align 8, !tbaa !22
  br label %55

55:                                               ; preds = %50, %45
  br label %100

56:                                               ; preds = %19
  %57 = load ptr, ptr %6, align 8, !tbaa !3
  %58 = getelementptr inbounds nuw %struct.BIO_CORE_GLOBALS, ptr %57, i32 0, i32 3
  %59 = load ptr, ptr %58, align 8, !tbaa !23
  %60 = icmp eq ptr %59, null
  br i1 %60, label %61, label %66

61:                                               ; preds = %56
  %62 = load ptr, ptr %5, align 8, !tbaa !17
  %63 = call ptr @OSSL_FUNC_BIO_puts(ptr noundef %62)
  %64 = load ptr, ptr %6, align 8, !tbaa !3
  %65 = getelementptr inbounds nuw %struct.BIO_CORE_GLOBALS, ptr %64, i32 0, i32 3
  store ptr %63, ptr %65, align 8, !tbaa !23
  br label %66

66:                                               ; preds = %61, %56
  br label %100

67:                                               ; preds = %19
  %68 = load ptr, ptr %6, align 8, !tbaa !3
  %69 = getelementptr inbounds nuw %struct.BIO_CORE_GLOBALS, ptr %68, i32 0, i32 4
  %70 = load ptr, ptr %69, align 8, !tbaa !24
  %71 = icmp eq ptr %70, null
  br i1 %71, label %72, label %77

72:                                               ; preds = %67
  %73 = load ptr, ptr %5, align 8, !tbaa !17
  %74 = call ptr @OSSL_FUNC_BIO_ctrl(ptr noundef %73)
  %75 = load ptr, ptr %6, align 8, !tbaa !3
  %76 = getelementptr inbounds nuw %struct.BIO_CORE_GLOBALS, ptr %75, i32 0, i32 4
  store ptr %74, ptr %76, align 8, !tbaa !24
  br label %77

77:                                               ; preds = %72, %67
  br label %100

78:                                               ; preds = %19
  %79 = load ptr, ptr %6, align 8, !tbaa !3
  %80 = getelementptr inbounds nuw %struct.BIO_CORE_GLOBALS, ptr %79, i32 0, i32 5
  %81 = load ptr, ptr %80, align 8, !tbaa !16
  %82 = icmp eq ptr %81, null
  br i1 %82, label %83, label %88

83:                                               ; preds = %78
  %84 = load ptr, ptr %5, align 8, !tbaa !17
  %85 = call ptr @OSSL_FUNC_BIO_up_ref(ptr noundef %84)
  %86 = load ptr, ptr %6, align 8, !tbaa !3
  %87 = getelementptr inbounds nuw %struct.BIO_CORE_GLOBALS, ptr %86, i32 0, i32 5
  store ptr %85, ptr %87, align 8, !tbaa !16
  br label %88

88:                                               ; preds = %83, %78
  br label %100

89:                                               ; preds = %19
  %90 = load ptr, ptr %6, align 8, !tbaa !3
  %91 = getelementptr inbounds nuw %struct.BIO_CORE_GLOBALS, ptr %90, i32 0, i32 6
  %92 = load ptr, ptr %91, align 8, !tbaa !25
  %93 = icmp eq ptr %92, null
  br i1 %93, label %94, label %99

94:                                               ; preds = %89
  %95 = load ptr, ptr %5, align 8, !tbaa !17
  %96 = call ptr @OSSL_FUNC_BIO_free(ptr noundef %95)
  %97 = load ptr, ptr %6, align 8, !tbaa !3
  %98 = getelementptr inbounds nuw %struct.BIO_CORE_GLOBALS, ptr %97, i32 0, i32 6
  store ptr %96, ptr %98, align 8, !tbaa !25
  br label %99

99:                                               ; preds = %94, %89
  br label %100

100:                                              ; preds = %19, %99, %88, %77, %66, %55, %44, %33
  br label %101

101:                                              ; preds = %100
  %102 = load ptr, ptr %5, align 8, !tbaa !17
  %103 = getelementptr inbounds nuw %struct.ossl_dispatch_st, ptr %102, i32 1
  store ptr %103, ptr %5, align 8, !tbaa !17
  br label %14, !llvm.loop !26

104:                                              ; preds = %14
  store i32 1, ptr %3, align 4
  store i32 1, ptr %7, align 4
  br label %105

105:                                              ; preds = %104, %12
  call void @llvm.lifetime.end.p0(i64 8, ptr %6) #4
  %106 = load i32, ptr %3, align 4
  ret i32 %106
}