; Function Attrs: nounwind uwtable
define range(i32 0, 2) i32 @ossl_bio_init_core(ptr noundef %0, ptr noundef readonly captures(none) %1) local_unnamed_addr #0 {
  %3 = tail call ptr @ossl_lib_ctx_get_data(ptr noundef %0, i32 noundef 17) #3
  %4 = icmp eq ptr %3, null
  br i1 %4, label %.loopexit, label %.preheader

.preheader:                                       ; preds = %2
  %5 = getelementptr inbounds nuw i8, ptr %3, i64 48
  %6 = getelementptr inbounds nuw i8, ptr %3, i64 40
  %7 = getelementptr inbounds nuw i8, ptr %3, i64 32
  %8 = getelementptr inbounds nuw i8, ptr %3, i64 24
  %9 = getelementptr inbounds nuw i8, ptr %3, i64 16
  %10 = getelementptr inbounds nuw i8, ptr %3, i64 8
  br label %11

11:                                               ; preds = %.preheader, %48
  %.026 = phi ptr [ %49, %48 ], [ %1, %.preheader ]
  %12 = load i32, ptr %.026, align 8, !tbaa !10
  switch i32 %12, label %48 [
    i32 0, label %.loopexit
    i32 42, label %13
    i32 43, label %18
    i32 49, label %23
    i32 48, label %28
    i32 50, label %33
    i32 44, label %38
    i32 45, label %43
  ]

13:                                               ; preds = %11
  %14 = load ptr, ptr %3, align 8, !tbaa !8
  %15 = icmp eq ptr %14, null
  br i1 %15, label %16, label %48

16:                                               ; preds = %13
  %17 = getelementptr i8, ptr %.026, i64 8
  %.026.val = load ptr, ptr %17, align 8, !tbaa !13
  store ptr %.026.val, ptr %3, align 8, !tbaa !8
  br label %48

18:                                               ; preds = %11
  %19 = load ptr, ptr %10, align 8, !tbaa !3
  %20 = icmp eq ptr %19, null
  br i1 %20, label %21, label %48

21:                                               ; preds = %18
  %22 = getelementptr i8, ptr %.026, i64 8
  %.026.val28 = load ptr, ptr %22, align 8, !tbaa !13
  store ptr %.026.val28, ptr %10, align 8, !tbaa !3
  br label %48

23:                                               ; preds = %11
  %24 = load ptr, ptr %9, align 8, !tbaa !14
  %25 = icmp eq ptr %24, null
  br i1 %25, label %26, label %48

26:                                               ; preds = %23
  %27 = getelementptr i8, ptr %.026, i64 8
  %.026.val29 = load ptr, ptr %27, align 8, !tbaa !13
  store ptr %.026.val29, ptr %9, align 8, !tbaa !14
  br label %48

28:                                               ; preds = %11
  %29 = load ptr, ptr %8, align 8, !tbaa !15
  %30 = icmp eq ptr %29, null
  br i1 %30, label %31, label %48

31:                                               ; preds = %28
  %32 = getelementptr i8, ptr %.026, i64 8
  %.026.val30 = load ptr, ptr %32, align 8, !tbaa !13
  store ptr %.026.val30, ptr %8, align 8, !tbaa !15
  br label %48

33:                                               ; preds = %11
  %34 = load ptr, ptr %7, align 8, !tbaa !16
  %35 = icmp eq ptr %34, null
  br i1 %35, label %36, label %48

36:                                               ; preds = %33
  %37 = getelementptr i8, ptr %.026, i64 8
  %.026.val31 = load ptr, ptr %37, align 8, !tbaa !13
  store ptr %.026.val31, ptr %7, align 8, !tbaa !16
  br label %48

38:                                               ; preds = %11
  %39 = load ptr, ptr %6, align 8, !tbaa !9
  %40 = icmp eq ptr %39, null
  br i1 %40, label %41, label %48

41:                                               ; preds = %38
  %42 = getelementptr i8, ptr %.026, i64 8
  %.026.val32 = load ptr, ptr %42, align 8, !tbaa !13
  store ptr %.026.val32, ptr %6, align 8, !tbaa !9
  br label %48

43:                                               ; preds = %11
  %44 = load ptr, ptr %5, align 8, !tbaa !17
  %45 = icmp eq ptr %44, null
  br i1 %45, label %46, label %48

46:                                               ; preds = %43
  %47 = getelementptr i8, ptr %.026, i64 8
  %.026.val33 = load ptr, ptr %47, align 8, !tbaa !13
  store ptr %.026.val33, ptr %5, align 8, !tbaa !17
  br label %48

48:                                               ; preds = %11, %16, %13, %21, %18, %26, %23, %31, %28, %36, %33, %41, %38, %46, %43
  %49 = getelementptr inbounds nuw i8, ptr %.026, i64 16
  br label %11, !llvm.loop !18

.loopexit:                                        ; preds = %11, %2
  %.0 = phi i32 [ 0, %2 ], [ 1, %11 ]
  ret i32 %.0
}